target datalayout = "e-m:e-p270:32:32-p271:32:32-p272:64:64-i64:64-i128:128-f80:128-n8:16:32:64-S128"
target triple = "x86_64-pc-linux-gnu"

%class.Type = type <{ ptr, ptr, i32, [4 x i8] }>
%class.Node = type <{ ptr, ptr, ptr, i32, i32, i32, i32, i32, i32, i32, [4 x i8] }>
%class.PhaseValues = type { %class.PhaseTransform, i8, ptr, ptr, [137 x ptr], [137 x ptr], [20 x ptr] }
%class.PhaseTransform = type { ptr, %class.Phase }
%class.Phase = type { i32, ptr }
%class.anon = type { i8 }
%class.Type_Array = type { ptr, i32, ptr }
%class.oopDesc = type { %class.markWord, %"union.oopDesc::_metadata" }
%class.markWord = type { i64 }
%"union.oopDesc::_metadata" = type { ptr }

; Function Attrs: mustprogress nounwind uwtable
define linkonce_odr hidden noundef i64 @_ZZN7oopDesc21klass_offset_in_bytesEvENKUlvE_clEv(ptr noundef nonnull align 1 dereferenceable(1) %0) #1 comdat align 2 {
  %2 = alloca ptr, align 8
  %3 = alloca [16 x i8], align 16
  %4 = alloca ptr, align 8
  %5 = alloca ptr, align 8
  store ptr %0, ptr %2, align 8
  %6 = getelementptr inbounds [16 x i8], ptr %3, i64 0, i64 0
  store ptr %6, ptr %4, align 8
  %7 = load ptr, ptr %4, align 8
  %8 = getelementptr inbounds %class.oopDesc, ptr %7, i32 0, i32 1
  store ptr %8, ptr %5, align 8
  %9 = load ptr, ptr %5, align 8
  %10 = getelementptr inbounds [16 x i8], ptr %3, i64 0, i64 0
  %11 = ptrtoint ptr %9 to i64
  %12 = ptrtoint ptr %10 to i64
  %13 = sub i64 %11, %12
  ret i64 %13
}

; Function Attrs: mustprogress nounwind uwtable
define linkonce_odr hidden noundef ptr @_ZNK10Type_Array11fast_lookupEj(ptr noundef nonnull align 8 dereferenceable(24) %0, i32 noundef %1) #1 comdat align 2 {
  %3 = alloca ptr, align 8
  %4 = alloca i32, align 4
  store ptr %0, ptr %3, align 8
  store i32 %1, ptr %4, align 4
  %5 = load ptr, ptr %3, align 8
  %6 = getelementptr inbounds %class.Type_Array, ptr %5, i32 0, i32 2
  %7 = load ptr, ptr %6, align 8
  %8 = load i32, ptr %4, align 4
  %9 = zext i32 %8 to i64
  %10 = getelementptr inbounds ptr, ptr %7, i64 %9
  %11 = load ptr, ptr %10, align 8
  ret ptr %11
}

; Function Attrs: mustprogress nounwind uwtable
define linkonce_odr hidden noundef ptr @_ZN12AllocateNode11Ideal_klassEP4NodeP11PhaseValues(ptr noundef %0, ptr noundef %1) #1 comdat align 2 {
  %3 = alloca ptr, align 8
  %4 = alloca ptr, align 8
  %5 = alloca ptr, align 8
  store ptr %0, ptr %3, align 8
  store ptr %1, ptr %4, align 8
  %6 = load ptr, ptr %3, align 8
  %7 = call noundef ptr @_ZN12AllocateNode16Ideal_allocationEP4Node(ptr noundef %6)
  store ptr %7, ptr %5, align 8
  %8 = load ptr, ptr %5, align 8
  %9 = icmp eq ptr %8, null
  br i1 %9, label %10, label %11

10:                                               ; preds = %2
  br label %14

11:                                               ; preds = %2
  %12 = load ptr, ptr %5, align 8
  %13 = call noundef ptr @_ZNK4Node2inEj(ptr noundef nonnull align 8 dereferenceable(52) %12, i32 noundef 6)
  br label %14

14:                                               ; preds = %11, %10
  %15 = phi ptr [ null, %10 ], [ %13, %11 ]
  ret ptr %15
}

; Function Attrs: mustprogress nounwind uwtable
define linkonce_odr hidden noundef i32 @_ZN7oopDesc21klass_offset_in_bytesEv() #1 comdat align 2 {
  %1 = alloca %class.anon, align 1
  %2 = call noundef i64 @_ZZN7oopDesc21klass_offset_in_bytesEvENKUlvE_clEv(ptr noundef nonnull align 1 dereferenceable(1) %1)
  %3 = trunc i64 %2 to i32
  ret i32 %3
}

; Function Attrs: mustprogress nounwind uwtable
define linkonce_odr hidden noundef zeroext i1 @_ZNK4Node15is_DecodeNKlassEv(ptr noundef nonnull align 8 dereferenceable(52) %0) #1 comdat align 2 {
  %2 = alloca ptr, align 8
  store ptr %0, ptr %2, align 8
  %3 = load ptr, ptr %2, align 8
  %4 = getelementptr inbounds %class.Node, ptr %3, i32 0, i32 8
  %5 = load i32, ptr %4, align 4
  %6 = and i32 %5, 2047
  %7 = icmp eq i32 %6, 1284
  ret i1 %7
}

; Function Attrs: mustprogress nounwind uwtable
define linkonce_odr hidden noundef ptr @_ZNK4Type10isa_oopptrEv(ptr noundef nonnull align 8 dereferenceable(20) %0) #1 comdat align 2 {
  %2 = alloca ptr, align 8
  store ptr %0, ptr %2, align 8
  %3 = load ptr, ptr %2, align 8
  %4 = getelementptr inbounds %class.Type, ptr %3, i32 0, i32 2
  %5 = load i32, ptr %4, align 8
  %6 = icmp sge i32 %5, 20
  br i1 %6, label %7, label %12

7:                                                ; preds = %1
  %8 = getelementptr inbounds %class.Type, ptr %3, i32 0, i32 2
  %9 = load i32, ptr %8, align 8
  %10 = icmp sle i32 %9, 22
  br i1 %10, label %11, label %12

11:                                               ; preds = %7
  br label %13

12:                                               ; preds = %7, %1
  br label %13

13:                                               ; preds = %12, %11
  %14 = phi ptr [ %3, %11 ], [ null, %12 ]
  ret ptr %14
}

; Function Attrs: mustprogress nounwind uwtable
define linkonce_odr hidden noundef ptr @_ZNK4Type12isa_klassptrEv(ptr noundef nonnull align 8 dereferenceable(20) %0) #1 comdat align 2 {
  %2 = alloca ptr, align 8
  store ptr %0, ptr %2, align 8
  %3 = load ptr, ptr %2, align 8
  %4 = getelementptr inbounds %class.Type, ptr %3, i32 0, i32 2
  %5 = load i32, ptr %4, align 8
  %6 = icmp sge i32 %5, 24
  br i1 %6, label %7, label %12

7:                                                ; preds = %1
  %8 = getelementptr inbounds %class.Type, ptr %3, i32 0, i32 2
  %9 = load i32, ptr %8, align 8
  %10 = icmp sle i32 %9, 26
  br i1 %10, label %11, label %12

11:                                               ; preds = %7
  br label %13

12:                                               ; preds = %7, %1
  br label %13

13:                                               ; preds = %12, %11
  %14 = phi ptr [ %3, %11 ], [ null, %12 ]
  ret ptr %14
}

; Function Attrs: mustprogress nounwind uwtable
define linkonce_odr hidden noundef ptr @_ZNK11PhaseValues4typeEPK4Node(ptr noundef nonnull align 8 dereferenceable(2400) %0, ptr noundef %1) #1 comdat align 2 {
  %3 = alloca ptr, align 8
  %4 = alloca ptr, align 8
  %5 = alloca ptr, align 8
  store ptr %0, ptr %3, align 8
  store ptr %1, ptr %4, align 8
  %6 = load ptr, ptr %3, align 8
  %7 = getelementptr inbounds %class.PhaseValues, ptr %6, i32 0, i32 3
  %8 = load ptr, ptr %7, align 8
  %9 = load ptr, ptr %4, align 8
  %10 = getelementptr inbounds %class.Node, ptr %9, i32 0, i32 7
  %11 = load i32, ptr %10, align 8
  %12 = call noundef ptr @_ZNK10Type_Array11fast_lookupEj(ptr noundef nonnull align 8 dereferenceable(24) %8, i32 noundef %11)
  store ptr %12, ptr %5, align 8
  %13 = load ptr, ptr %5, align 8
  ret ptr %13
}

; Function Attrs: mustprogress nounwind uwtable
define linkonce_odr hidden noundef ptr @_ZNK4Node2inEj(ptr noundef nonnull align 8 dereferenceable(52) %0, i32 noundef %1) #1 comdat align 2 {
  %3 = alloca ptr, align 8
  %4 = alloca i32, align 4
  store ptr %0, ptr %3, align 8
  store i32 %1, ptr %4, align 4
  %5 = load ptr, ptr %3, align 8
  %6 = getelementptr inbounds %class.Node, ptr %5, i32 0, i32 1
  %7 = load ptr, ptr %6, align 8
  %8 = load i32, ptr %4, align 4
  %9 = zext i32 %8 to i64
  %10 = getelementptr inbounds ptr, ptr %7, i64 %9
  %11 = load ptr, ptr %10, align 8
  ret ptr %11
}

; Function Attrs: mustprogress nounwind uwtable
define hidden noundef ptr @_ZN16SubTypeCheckNode5IdealEP8PhaseGVNb(ptr noundef nonnull align 8 dereferenceable(68) %0, ptr noundef %1, i1 noundef zeroext %2) unnamed_addr #1 align 2 {
  %4 = alloca ptr, align 8
  %5 = alloca ptr, align 8
  %6 = alloca ptr, align 8
  %7 = alloca i8, align 1
  %8 = alloca ptr, align 8
  %9 = alloca ptr, align 8
  %10 = alloca ptr, align 8
  %11 = alloca ptr, align 8
  %12 = alloca ptr, align 8
  %13 = alloca i64, align 8
  %14 = alloca ptr, align 8
  %15 = alloca ptr, align 8
  store ptr %0, ptr %5, align 8
  store ptr %1, ptr %6, align 8
  %16 = zext i1 %2 to i8
  store i8 %16, ptr %7, align 1
  %17 = load ptr, ptr %5, align 8
  %18 = call noundef ptr @_ZNK4Node2inEj(ptr noundef nonnull align 8 dereferenceable(52) %17, i32 noundef 1)
  store ptr %18, ptr %8, align 8
  %19 = call noundef ptr @_ZNK4Node2inEj(ptr noundef nonnull align 8 dereferenceable(52) %17, i32 noundef 2)
  store ptr %19, ptr %9, align 8
  %20 = load ptr, ptr %8, align 8
  %21 = icmp eq ptr %20, null
  br i1 %21, label %25, label %22

22:                                               ; preds = %3
  %23 = load ptr, ptr %9, align 8
  %24 = icmp eq ptr %23, null
  br i1 %24, label %25, label %26

25:                                               ; preds = %22, %3
  store ptr null, ptr %4, align 8
  br label %104

26:                                               ; preds = %22
  %27 = load ptr, ptr %6, align 8
  %28 = load ptr, ptr %8, align 8
  %29 = call noundef ptr @_ZNK11PhaseValues4typeEPK4Node(ptr noundef nonnull align 8 dereferenceable(2400) %27, ptr noundef %28)
  store ptr %29, ptr %10, align 8
  %30 = load ptr, ptr %6, align 8
  %31 = load ptr, ptr %9, align 8
  %32 = call noundef ptr @_ZNK11PhaseValues4typeEPK4Node(ptr noundef nonnull align 8 dereferenceable(2400) %30, ptr noundef %31)
  store ptr %32, ptr %11, align 8
  %33 = load ptr, ptr %11, align 8
  %34 = call noundef ptr @_ZNK4Type12isa_klassptrEv(ptr noundef nonnull align 8 dereferenceable(20) %33)
  %35 = icmp ne ptr %34, null
  br i1 %35, label %36, label %44

36:                                               ; preds = %26
  %37 = load ptr, ptr %10, align 8
  %38 = call noundef ptr @_ZNK4Type12isa_klassptrEv(ptr noundef nonnull align 8 dereferenceable(20) %37)
  %39 = icmp ne ptr %38, null
  br i1 %39, label %45, label %40

40:                                               ; preds = %36
  %41 = load ptr, ptr %10, align 8
  %42 = call noundef ptr @_ZNK4Type10isa_oopptrEv(ptr noundef nonnull align 8 dereferenceable(20) %41)
  %43 = icmp ne ptr %42, null
  br i1 %43, label %45, label %44

44:                                               ; preds = %40, %26
  store ptr null, ptr %4, align 8
  br label %104

45:                                               ; preds = %40, %36
  store ptr null, ptr %12, align 8
  %46 = load ptr, ptr %8, align 8
  %47 = call noundef zeroext i1 @_ZNK4Node15is_DecodeNKlassEv(ptr noundef nonnull align 8 dereferenceable(52) %46)
  br i1 %47, label %48, label %65

48:                                               ; preds = %45
  %49 = load ptr, ptr %8, align 8
  %50 = call noundef ptr @_ZNK4Node2inEj(ptr noundef nonnull align 8 dereferenceable(52) %49, i32 noundef 1)
  %51 = icmp ne ptr %50, null
  br i1 %51, label %52, label %64

52:                                               ; preds = %48
  %53 = load ptr, ptr %8, align 8
  %54 = call noundef ptr @_ZNK4Node2inEj(ptr noundef nonnull align 8 dereferenceable(52) %53, i32 noundef 1)
  %55 = load ptr, ptr %54, align 8
  %56 = getelementptr inbounds ptr, ptr %55, i64 0
  %57 = load ptr, ptr %56, align 8
  %58 = call noundef i32 %57(ptr noundef nonnull align 8 dereferenceable(52) %54)
  %59 = icmp eq i32 %58, 195
  br i1 %59, label %60, label %64

60:                                               ; preds = %52
  %61 = load ptr, ptr %8, align 8
  %62 = call noundef ptr @_ZNK4Node2inEj(ptr noundef nonnull align 8 dereferenceable(52) %61, i32 noundef 1)
  %63 = call noundef ptr @_ZNK4Node2inEj(ptr noundef nonnull align 8 dereferenceable(52) %62, i32 noundef 2)
  store ptr %63, ptr %12, align 8
  br label %64

64:                                               ; preds = %60, %52, %48
  br label %76

65:                                               ; preds = %45
  %66 = load ptr, ptr %8, align 8
  %67 = load ptr, ptr %66, align 8
  %68 = getelementptr inbounds ptr, ptr %67, i64 0
  %69 = load ptr, ptr %68, align 8
  %70 = call noundef i32 %69(ptr noundef nonnull align 8 dereferenceable(52) %66)
  %71 = icmp eq i32 %70, 194
  br i1 %71, label %72, label %75

72:                                               ; preds = %65
  %73 = load ptr, ptr %8, align 8
  %74 = call noundef ptr @_ZNK4Node2inEj(ptr noundef nonnull align 8 dereferenceable(52) %73, i32 noundef 2)
  store ptr %74, ptr %12, align 8
  br label %75

75:                                               ; preds = %72, %65
  br label %76

76:                                               ; preds = %75, %64
  %77 = load ptr, ptr %12, align 8
  %78 = icmp ne ptr %77, null
  br i1 %78, label %79, label %94

79:                                               ; preds = %76
  store i64 0, ptr %13, align 8
  %80 = load ptr, ptr %12, align 8
  %81 = load ptr, ptr %6, align 8
  %82 = call noundef ptr @_ZN8AddPNode21Ideal_base_and_offsetEP4NodeP11PhaseValuesRl(ptr noundef %80, ptr noundef %81, ptr noundef nonnull align 8 dereferenceable(8) %13)
  store ptr %82, ptr %14, align 8
  %83 = load i64, ptr %13, align 8
  %84 = call noundef i32 @_ZN7oopDesc21klass_offset_in_bytesEv()
  %85 = sext i32 %84 to i64
  %86 = icmp eq i64 %83, %85
  br i1 %86, label %87, label %93

87:                                               ; preds = %79
  %88 = load ptr, ptr %14, align 8
  %89 = icmp ne ptr %88, null
  br i1 %89, label %90, label %93

90:                                               ; preds = %87
  %91 = load ptr, ptr %14, align 8
  %92 = load ptr, ptr %6, align 8
  call void @_ZN4Node9set_req_XEjPS_P8PhaseGVN(ptr noundef nonnull align 8 dereferenceable(52) %17, i32 noundef 1, ptr noundef %91, ptr noundef %92)
  store ptr %17, ptr %4, align 8
  br label %104

93:                                               ; preds = %87, %79
  br label %94

94:                                               ; preds = %93, %76
  %95 = load ptr, ptr %8, align 8
  %96 = load ptr, ptr %6, align 8
  %97 = call noundef ptr @_ZN12AllocateNode11Ideal_klassEP4NodeP11PhaseValues(ptr noundef %95, ptr noundef %96)
  store ptr %97, ptr %15, align 8
  %98 = load ptr, ptr %15, align 8
  %99 = icmp ne ptr %98, null
  br i1 %99, label %100, label %103

100:                                              ; preds = %94
  %101 = load ptr, ptr %15, align 8
  %102 = load ptr, ptr %6, align 8
  call void @_ZN4Node9set_req_XEjPS_P8PhaseGVN(ptr noundef nonnull align 8 dereferenceable(52) %17, i32 noundef 1, ptr noundef %101, ptr noundef %102)
  store ptr %17, ptr %4, align 8
  br label %104

103:                                              ; preds = %94
  store ptr null, ptr %4, align 8
  br label %104

104:                                              ; preds = %103, %100, %90, %44, %25
  %105 = load ptr, ptr %4, align 8
  ret ptr %105
}