; Function Attrs: mustprogress nounwind uwtable
define hidden noundef ptr @_ZN16SubTypeCheckNode5IdealEP8PhaseGVNb(ptr noundef nonnull align 8 dereferenceable(68) %0, ptr noundef %1, i1 zeroext %2) unnamed_addr #0 align 2 {
  %4 = alloca i64, align 8
  %5 = getelementptr inbounds i8, ptr %0, i64 8
  %6 = load ptr, ptr %5, align 8
  %7 = getelementptr inbounds i8, ptr %6, i64 8
  %8 = load ptr, ptr %7, align 8
  %9 = getelementptr inbounds i8, ptr %6, i64 16
  %10 = load ptr, ptr %9, align 8
  %11 = icmp eq ptr %8, null
  %12 = icmp eq ptr %10, null
  %or.cond = or i1 %11, %12
  br i1 %or.cond, label %_ZN12AllocateNode11Ideal_klassEP4NodeP11PhaseValues.exit.thread, label %13

13:                                               ; preds = %3
  %14 = getelementptr inbounds i8, ptr %1, i64 40
  %15 = load ptr, ptr %14, align 8
  %16 = getelementptr inbounds i8, ptr %15, i64 16
  %17 = load ptr, ptr %16, align 8
  %18 = getelementptr inbounds i8, ptr %10, i64 40
  %19 = load i32, ptr %18, align 8
  %20 = zext i32 %19 to i64
  %21 = getelementptr inbounds ptr, ptr %17, i64 %20
  %22 = load ptr, ptr %21, align 8
  %23 = getelementptr inbounds i8, ptr %22, i64 16
  %24 = load i32, ptr %23, align 8
  %25 = add i32 %24, -27
  %or.cond.i = icmp ult i32 %25, -3
  %.not46 = icmp eq ptr %22, null
  %.not = or i1 %.not46, %or.cond.i
  br i1 %.not, label %_ZN12AllocateNode11Ideal_klassEP4NodeP11PhaseValues.exit.thread, label %26

26:                                               ; preds = %13
  %27 = getelementptr inbounds i8, ptr %8, i64 40
  %28 = load i32, ptr %27, align 8
  %29 = zext i32 %28 to i64
  %30 = getelementptr inbounds ptr, ptr %17, i64 %29
  %31 = load ptr, ptr %30, align 8
  %32 = getelementptr inbounds i8, ptr %31, i64 16
  %33 = load i32, ptr %32, align 8
  %34 = add i32 %33, -27
  %or.cond.i41 = icmp ult i32 %34, -3
  %.not3647 = icmp eq ptr %31, null
  %.not36 = or i1 %or.cond.i41, %.not3647
  br i1 %.not36, label %35, label %37

35:                                               ; preds = %26
  %36 = add i32 %33, -23
  %or.cond.i42 = icmp ult i32 %36, -3
  %.not37 = or i1 %or.cond.i42, %.not3647
  br i1 %.not37, label %_ZN12AllocateNode11Ideal_klassEP4NodeP11PhaseValues.exit.thread, label %37

37:                                               ; preds = %35, %26
  %38 = getelementptr inbounds i8, ptr %8, i64 44
  %39 = load i32, ptr %38, align 4
  %40 = and i32 %39, 2047
  %41 = icmp eq i32 %40, 1284
  br i1 %41, label %42, label %56

42:                                               ; preds = %37
  %43 = getelementptr inbounds i8, ptr %8, i64 8
  %44 = load ptr, ptr %43, align 8
  %45 = getelementptr inbounds i8, ptr %44, i64 8
  %46 = load ptr, ptr %45, align 8
  %.not38 = icmp eq ptr %46, null
  br i1 %.not38, label %.thread, label %47

47:                                               ; preds = %42
  %48 = load ptr, ptr %46, align 8
  %49 = load ptr, ptr %48, align 8
  %50 = tail call noundef i32 %49(ptr noundef nonnull align 8 dereferenceable(52) %46) #5
  %51 = icmp eq i32 %50, 195
  br i1 %51, label %52, label %.thread

52:                                               ; preds = %47
  %53 = load ptr, ptr %43, align 8
  %54 = getelementptr inbounds i8, ptr %53, i64 8
  %55 = load ptr, ptr %54, align 8
  br label %61

56:                                               ; preds = %37
  %57 = load ptr, ptr %8, align 8
  %58 = load ptr, ptr %57, align 8
  %59 = tail call noundef i32 %58(ptr noundef nonnull align 8 dereferenceable(52) %8) #5
  %60 = icmp eq i32 %59, 194
  br i1 %60, label %61, label %.thread

61:                                               ; preds = %56, %52
  %.pn49 = phi ptr [ %55, %52 ], [ %8, %56 ]
  %.pn.in = getelementptr inbounds i8, ptr %.pn49, i64 8
  %.pn = load ptr, ptr %.pn.in, align 8
  %.031.in = getelementptr inbounds i8, ptr %.pn, i64 16
  %.031 = load ptr, ptr %.031.in, align 8
  %.not39 = icmp eq ptr %.031, null
  br i1 %.not39, label %.thread, label %62

62:                                               ; preds = %61
  store i64 0, ptr %4, align 8
  %63 = call noundef ptr @_ZN8AddPNode21Ideal_base_and_offsetEP4NodeP11PhaseValuesRl(ptr noundef nonnull %.031, ptr noundef nonnull %1, ptr noundef nonnull align 8 dereferenceable(8) %4) #5
  %64 = load i64, ptr %4, align 8
  %65 = icmp eq i64 %64, 8
  %66 = icmp ne ptr %63, null
  %or.cond3 = and i1 %66, %65
  br i1 %or.cond3, label %_ZN12AllocateNode11Ideal_klassEP4NodeP11PhaseValues.exit.thread.sink.split, label %.thread

.thread:                                          ; preds = %56, %42, %47, %62, %61
  %67 = call noundef ptr @_ZN12AllocateNode16Ideal_allocationEP4Node(ptr noundef nonnull %8) #5
  %68 = icmp eq ptr %67, null
  br i1 %68, label %_ZN12AllocateNode11Ideal_klassEP4NodeP11PhaseValues.exit.thread, label %_ZN12AllocateNode11Ideal_klassEP4NodeP11PhaseValues.exit

_ZN12AllocateNode11Ideal_klassEP4NodeP11PhaseValues.exit: ; preds = %.thread
  %69 = getelementptr inbounds i8, ptr %67, i64 8
  %70 = load ptr, ptr %69, align 8
  %71 = getelementptr inbounds i8, ptr %70, i64 48
  %72 = load ptr, ptr %71, align 8
  %.not40 = icmp eq ptr %72, null
  br i1 %.not40, label %_ZN12AllocateNode11Ideal_klassEP4NodeP11PhaseValues.exit.thread, label %_ZN12AllocateNode11Ideal_klassEP4NodeP11PhaseValues.exit.thread.sink.split

_ZN12AllocateNode11Ideal_klassEP4NodeP11PhaseValues.exit.thread.sink.split: ; preds = %_ZN12AllocateNode11Ideal_klassEP4NodeP11PhaseValues.exit, %62
  %.sink = phi ptr [ %63, %62 ], [ %72, %_ZN12AllocateNode11Ideal_klassEP4NodeP11PhaseValues.exit ]
  call void @_ZN4Node9set_req_XEjPS_P8PhaseGVN(ptr noundef nonnull align 8 dereferenceable(52) %0, i32 noundef 1, ptr noundef nonnull %.sink, ptr noundef nonnull %1) #5
  br label %_ZN12AllocateNode11Ideal_klassEP4NodeP11PhaseValues.exit.thread

_ZN12AllocateNode11Ideal_klassEP4NodeP11PhaseValues.exit.thread: ; preds = %_ZN12AllocateNode11Ideal_klassEP4NodeP11PhaseValues.exit.thread.sink.split, %.thread, %_ZN12AllocateNode11Ideal_klassEP4NodeP11PhaseValues.exit, %13, %35, %3
  %.0 = phi ptr [ null, %3 ], [ null, %35 ], [ null, %13 ], [ null, %_ZN12AllocateNode11Ideal_klassEP4NodeP11PhaseValues.exit ], [ null, %.thread ], [ %0, %_ZN12AllocateNode11Ideal_klassEP4NodeP11PhaseValues.exit.thread.sink.split ]
  ret ptr %.0
}